target datalayout = "e-m:e-p270:32:32-p271:32:32-p272:64:64-i64:64-i128:128-f80:128-n8:16:32:64-S128"
target triple = "x86_64-pc-linux-gnu"

%struct.blockProperties_t = type { i32, i32, i32 }

; Function Attrs: inlinehint nounwind uwtable
define internal zeroext i16 @MEM_read16(ptr noundef %0) #2 {
  %2 = alloca ptr, align 8
  store ptr %0, ptr %2, align 8, !tbaa !3
  %3 = load ptr, ptr %2, align 8, !tbaa !3
  %4 = load i16, ptr %3, align 1, !tbaa !60
  ret i16 %4
}

; Function Attrs: inlinehint nounwind uwtable
define internal i32 @MEM_isLittleEndian() #2 {
  ret i32 1
}

; Function Attrs: inlinehint nounwind uwtable
define internal zeroext i16 @MEM_readLE16(ptr noundef %0) #2 {
  %2 = alloca i16, align 2
  %3 = alloca ptr, align 8
  %4 = alloca ptr, align 8
  store ptr %0, ptr %3, align 8, !tbaa !3
  %5 = call i32 @MEM_isLittleEndian()
  %6 = icmp ne i32 %5, 0
  br i1 %6, label %7, label %10

7:                                                ; preds = %1
  %8 = load ptr, ptr %3, align 8, !tbaa !3
  %9 = call zeroext i16 @MEM_read16(ptr noundef %8)
  store i16 %9, ptr %2, align 2
  br label %23

10:                                               ; preds = %1
  call void @llvm.lifetime.start.p0(i64 8, ptr %4) #14
  %11 = load ptr, ptr %3, align 8, !tbaa !3
  store ptr %11, ptr %4, align 8, !tbaa !29
  %12 = load ptr, ptr %4, align 8, !tbaa !29
  %13 = getelementptr inbounds i8, ptr %12, i64 0
  %14 = load i8, ptr %13, align 1, !tbaa !15
  %15 = zext i8 %14 to i32
  %16 = load ptr, ptr %4, align 8, !tbaa !29
  %17 = getelementptr inbounds i8, ptr %16, i64 1
  %18 = load i8, ptr %17, align 1, !tbaa !15
  %19 = zext i8 %18 to i32
  %20 = shl i32 %19, 8
  %21 = add nsw i32 %15, %20
  %22 = trunc i32 %21 to i16
  store i16 %22, ptr %2, align 2
  call void @llvm.lifetime.end.p0(i64 8, ptr %4) #14
  br label %23

23:                                               ; preds = %10, %7
  %24 = load i16, ptr %2, align 2
  ret i16 %24
}

; Function Attrs: inlinehint nounwind uwtable
define internal i32 @MEM_readLE24(ptr noundef %0) #2 {
  %2 = alloca ptr, align 8
  store ptr %0, ptr %2, align 8, !tbaa !3
  %3 = load ptr, ptr %2, align 8, !tbaa !3
  %4 = call zeroext i16 @MEM_readLE16(ptr noundef %3)
  %5 = zext i16 %4 to i32
  %6 = load ptr, ptr %2, align 8, !tbaa !3
  %7 = getelementptr inbounds i8, ptr %6, i64 2
  %8 = load i8, ptr %7, align 1, !tbaa !15
  %9 = zext i8 %8 to i32
  %10 = shl i32 %9, 16
  %11 = add i32 %5, %10
  ret i32 %11
}

; Function Attrs: nounwind uwtable
define i64 @ZSTD_getcBlockSize(ptr noundef %0, i64 noundef %1, ptr noundef %2) #0 {
  %4 = alloca i64, align 8
  %5 = alloca ptr, align 8
  %6 = alloca i64, align 8
  %7 = alloca ptr, align 8
  %8 = alloca i32, align 4
  %9 = alloca i32, align 4
  %10 = alloca i32, align 4
  store ptr %0, ptr %5, align 8, !tbaa !3
  store i64 %1, ptr %6, align 8, !tbaa !7
  store ptr %2, ptr %7, align 8, !tbaa !3
  br label %11

11:                                               ; preds = %3
  %12 = load i64, ptr %6, align 8, !tbaa !7
  %13 = icmp ult i64 %12, 3
  br i1 %13, label %14, label %23

14:                                               ; preds = %11
  br label %15

15:                                               ; preds = %14
  br label %16

16:                                               ; preds = %15
  br label %17

17:                                               ; preds = %16
  br label %18

18:                                               ; preds = %17
  br label %19

19:                                               ; preds = %18
  br label %20

20:                                               ; preds = %19
  br label %21

21:                                               ; preds = %20
  br label %22

22:                                               ; preds = %21
  store i64 -72, ptr %4, align 8
  br label %71

23:                                               ; preds = %11
  br label %24

24:                                               ; preds = %23
  call void @llvm.lifetime.start.p0(i64 4, ptr %8) #14
  %25 = load ptr, ptr %5, align 8, !tbaa !3
  %26 = call i32 @MEM_readLE24(ptr noundef %25)
  store i32 %26, ptr %8, align 4, !tbaa !9
  call void @llvm.lifetime.start.p0(i64 4, ptr %9) #14
  %27 = load i32, ptr %8, align 4, !tbaa !9
  %28 = lshr i32 %27, 3
  store i32 %28, ptr %9, align 4, !tbaa !9
  %29 = load i32, ptr %8, align 4, !tbaa !9
  %30 = and i32 %29, 1
  %31 = load ptr, ptr %7, align 8, !tbaa !3
  %32 = getelementptr inbounds nuw %struct.blockProperties_t, ptr %31, i32 0, i32 1
  store i32 %30, ptr %32, align 4, !tbaa !11
  %33 = load i32, ptr %8, align 4, !tbaa !9
  %34 = lshr i32 %33, 1
  %35 = and i32 %34, 3
  %36 = load ptr, ptr %7, align 8, !tbaa !3
  %37 = getelementptr inbounds nuw %struct.blockProperties_t, ptr %36, i32 0, i32 0
  store i32 %35, ptr %37, align 4, !tbaa !13
  %38 = load i32, ptr %9, align 4, !tbaa !9
  %39 = load ptr, ptr %7, align 8, !tbaa !3
  %40 = getelementptr inbounds nuw %struct.blockProperties_t, ptr %39, i32 0, i32 2
  store i32 %38, ptr %40, align 4, !tbaa !14
  %41 = load ptr, ptr %7, align 8, !tbaa !3
  %42 = getelementptr inbounds nuw %struct.blockProperties_t, ptr %41, i32 0, i32 0
  %43 = load i32, ptr %42, align 4, !tbaa !13
  %44 = icmp eq i32 %43, 1
  br i1 %44, label %45, label %46

45:                                               ; preds = %24
  store i64 1, ptr %4, align 8
  store i32 1, ptr %10, align 4
  br label %70

46:                                               ; preds = %24
  br label %47

47:                                               ; preds = %46
  %48 = load ptr, ptr %7, align 8, !tbaa !3
  %49 = getelementptr inbounds nuw %struct.blockProperties_t, ptr %48, i32 0, i32 0
  %50 = load i32, ptr %49, align 4, !tbaa !13
  %51 = icmp eq i32 %50, 3
  br i1 %51, label %52, label %65

52:                                               ; preds = %47
  br label %53

53:                                               ; preds = %52
  br label %54

54:                                               ; preds = %53
  br label %55

55:                                               ; preds = %54
  br label %56

56:                                               ; preds = %55
  br label %57

57:                                               ; preds = %56
  br label %58

58:                                               ; preds = %57
  br label %59

59:                                               ; preds = %58
  br label %60

60:                                               ; preds = %59
  br label %61

61:                                               ; preds = %60
  br label %62

62:                                               ; preds = %61
  br label %63

63:                                               ; preds = %62
  br label %64

64:                                               ; preds = %63
  store i64 -20, ptr %4, align 8
  store i32 1, ptr %10, align 4
  br label %70

65:                                               ; preds = %47
  br label %66

66:                                               ; preds = %65
  br label %67

67:                                               ; preds = %66
  %68 = load i32, ptr %9, align 4, !tbaa !9
  %69 = zext i32 %68 to i64
  store i64 %69, ptr %4, align 8
  store i32 1, ptr %10, align 4
  br label %70

70:                                               ; preds = %67, %64, %45
  call void @llvm.lifetime.end.p0(i64 4, ptr %9) #14
  call void @llvm.lifetime.end.p0(i64 4, ptr %8) #14
  br label %71

71:                                               ; preds = %70, %22
  %72 = load i64, ptr %4, align 8
  ret i64 %72
}