; Function Attrs: mustprogress nofree norecurse nosync nounwind willreturn memory(argmem: readwrite) uwtable
define range(i64 -72, 2097152) i64 @ZSTD_getcBlockSize(ptr noundef readonly captures(none) %0, i64 noundef %1, ptr noundef writeonly captures(none) %2) local_unnamed_addr #0 {
  %4 = icmp ult i64 %1, 3
  br i1 %4, label %20, label %5

5:                                                ; preds = %3
  %.val = load i16, ptr %0, align 1, !tbaa !3
  %6 = getelementptr i8, ptr %0, i64 2
  %.val13 = load i8, ptr %6, align 1, !tbaa !7
  %7 = zext i16 %.val to i32
  %8 = zext i8 %.val13 to i32
  %9 = shl nuw nsw i32 %8, 16
  %10 = or disjoint i32 %9, %7
  %11 = lshr i32 %10, 3
  %12 = and i32 %7, 1
  %13 = getelementptr inbounds nuw i8, ptr %2, i64 4
  store i32 %12, ptr %13, align 4, !tbaa !8
  %14 = lshr i32 %7, 1
  %15 = and i32 %14, 3
  store i32 %15, ptr %2, align 4, !tbaa !11
  %16 = getelementptr inbounds nuw i8, ptr %2, i64 8
  store i32 %11, ptr %16, align 4, !tbaa !12
  switch i32 %15, label %18 [
    i32 1, label %20
    i32 3, label %17
  ]

17:                                               ; preds = %5
  br label %20

18:                                               ; preds = %5
  %19 = zext nneg i32 %11 to i64
  br label %20

20:                                               ; preds = %17, %18, %5, %3
  %.0 = phi i64 [ -72, %3 ], [ -20, %17 ], [ %19, %18 ], [ 1, %5 ]
  ret i64 %.0
}